Certificate:
    Data:
        Version: 3 (0x2)
        Serial Number: 3 (0x3)
    Signature Algorithm: sha256WithRSAEncryption
        Issuer: C=US, ST=Malopolska, L=Krakow, CN=Inn Fake CA
        Validity
            Not Before: May  9 04:24:21 2022 GMT
            Not After : Jun 10 04:24:21 2023 GMT
        Subject: C=PL, ST=Malopolska, L=Krakow, CN=Inn
        Subject Public Key Info:
            Public Key Algorithm: rsaEncryption
                Public-Key: (2048 bit)
                Modulus:
                    00:99:43:9e:e7:9a:76:9b:3d:d0:5a:c3:58:6f:32:
                    46:c2:03:7d:78:4b:d7:e0:01:99:0d:8a:f4:1c:a6:
                    53:27:af:77:3d:4e:7d:a7:d7:65:59:60:2f:08:d1:
                    a8:7c:5b:07:b4:60:f0:5d:0b:d1:05:46:31:ac:5f:
                    91:9e:d8:b9:78:0a:5f:d4:db:a9:30:c3:9e:b1:11:
                    9a:b3:4a:44:d1:d2:08:db:3b:a3:48:04:92:ab:2f:
                    b6:0d:e1:10:8e:35:7a:c5:15:02:3a:03:fe:b1:04:
                    e4:bb:7f:6b:5f:c1:f6:d4:f1:7e:58:13:c2:a3:72:
                    e1:99:82:1e:5f:e9:e7:4a:26:4c:c6:41:04:bd:c4:
                    a3:ad:cb:64:8f:76:0b:02:b1:d6:d1:eb:9a:93:20:
                    94:02:7e:85:38:dc:0f:60:20:ea:88:bd:85:c7:a4:
                    84:11:41:85:5c:d6:83:d1:4f:30:29:71:21:08:60:
                    08:44:3e:8c:73:db:bb:54:6d:66:b6:e9:ae:20:9b:
                    f2:b4:2b:b6:de:14:d1:7f:bd:d6:8e:18:df:03:d0:
                    0e:8d:50:05:d6:f8:19:2d:8e:f9:9c:da:78:d7:c2:
                    42:95:7d:f9:69:46:90:af:42:04:58:5a:9c:05:ad:
                    3c:dd:99:11:0c:67:a3:22:6d:6a:eb:14:c6:46:dd:
                    bf:9f
                Exponent: 65537 (0x10001)
        X509v3 extensions:
            X509v3 Subject Key Identifier: 
                1B:55:5D:72:22:87:87:5D:7A:D6:F1:85:A7:95:6C:34:39:25:76:19
            X509v3 Authority Key Identifier:
                DirName:/C=US/ST=Malopolska/L=Krakow/CN=Inn Fake CA
                serial:86:C4:E7:1C:8B:1A:E9:9D

            X509v3 Basic Constraints: 
                CA:FALSE
            X509v3 Key Usage: 
                Digital Signature, Key Encipherment
            X509v3 Subject Alternative Name: 
                DNS:localhost, DNS:*.example.com, DNS:www.example.com, IP Address:127.0.0.1
            Netscape Comment: 
                Fake Dev-Only Certificate
    Signature Algorithm: sha256WithRSAEncryption
         83:bd:0b:77:06:cb:43:3b:3d:e6:bc:f5:bc:aa:b5:ba:57:38:
         3a:01:b2:53:06:58:ce:df:68:37:8c:4e:99:7e:d1:fc:d1:e9:
         7f:6a:1d:64:1e:94:4d:55:8c:25:20:c3:e5:c8:27:56:35:c9:
         c1:ae:40:c4:60:04:54:f2:f0:66:e8:fd:66:42:4d:98:d2:2c:
         d1:78:8f:b8:91:42:a4:ae:fd:5a:9b:a0:bb:11:af:aa:d1:6b:
         25:92:6f:9b:0b:b7:8b:90:69:20:31:b1:57:ce:02:df:3d:d7:
         44:12:21:0b:ae:b8:a5:54:65:82:96:4b:55:f5:b2:7d:f1:03:
         63:c0:3a:4a:8e:93:21:ea:dd:2b:c4:dd:bd:57:50:51:3a:ce:
         32:62:01:4d:73:f0:cf:4f:d9:af:ea:2b:14:2a:4e:96:16:76:
         52:c9:e4:57:05:dd:56:b3:d2:63:a8:bd:08:02:17:f4:65:12:
         88:27:44:44:d0:f8:ac:ef:5d:0e:db:d6:3d:a2:2a:95:76:bd:
         0d:7b:ac:63:b5:ac:08:17:fd:ef:9d:38:83:95:31:6e:f2:aa:
         c1:fb:cd:a0:4a:3c:b3:f3:aa:1e:b0:9a:0a:82:30:41:52:34:
         1d:31:39:c8:93:d0:38:4a:93:7d:b5:0c:3c:d5:d8:30:36:94:
         86:45:ce:1f
-----BEGIN CERTIFICATE-----
MIIEDTCCAvWgAwIBAgIBAzANBgkqhkiG9w0BAQsFADBJMQswCQYDVQQGEwJVUzET
MBEGA1UECAwKTWFsb3BvbHNrYTEPMA0GA1UEBwwGS3Jha293MRQwEgYDVQQDDAtJ
bm4gRmFrZSBDQTAeFw0yMjA1MDkwNDI0MjFaFw0yMzA2MTAwNDI0MjFaMEExCzAJ
BgNVBAYTAlBMMRMwEQYDVQQIDApNYWxvcG9sc2thMQ8wDQYDVQQHDAZLcmFrb3cx
DDAKBgNVBAMMA0lubjCCASIwDQYJKoZIhvcNAQEBBQADggEPADCCAQoCggEBAJlD
nueadps90FrDWG8yRsIDfXhL1+ABmQ2K9BymUyevdz1OfafXZVlgLwjRqHxbB7Rg
8F0L0QVGMaxfkZ7YuXgKX9TbqTDDnrERmrNKRNHSCNs7o0gEkqsvtg3hEI41esUV
AjoD/rEE5Lt/a1/B9tTxflgTwqNy4ZmCHl/p50omTMZBBL3Eo63LZI92CwKx1tHr
mpMglAJ+hTjcD2Ag6oi9hcekhBFBhVzWg9FPMClxIQhgCEQ+jHPbu1RtZrbpriCb
8rQrtt4U0X+91o4Y3wPQDo1QBdb4GS2O+ZzaeNfCQpV9+WlGkK9CBFhanAWtPN2Z
EQxnoyJtausUxkbdv58CAwEAAaOCAQYwggECMB0GA1UdDgQWBBQbVV1yIoeHXXrW
8YWnlWw0OSV2GTBjBgNVHSMEXDBaoU2kSzBJMQswCQYDVQQGEwJVUzETMBEGA1UE
CAwKTWFsb3BvbHNrYTEPMA0GA1UEBwwGS3Jha293MRQwEgYDVQQDDAtJbm4gRmFr
ZSBDQYIJAIbE5xyLGumdMAkGA1UdEwQCMAAwCwYDVR0PBAQDAgWgMDoGA1UdEQQz
MDGCCWxvY2FsaG9zdIINKi5leGFtcGxlLmNvbYIPd3d3LmV4YW1wbGUuY29thwR/
AAABMCgGCWCGSAGG+EIBDQQbFhlGYWtlIERldi1Pbmx5IENlcnRpZmljYXRlMA0G
CSqGSIb3DQEBCwUAA4IBAQCDvQt3BstDOz3mvPW8qrW6Vzg6AbJTBljO32g3jE6Z
ftH80el/ah1kHpRNVYwlIMPlyCdWNcnBrkDEYARU8vBm6P1mQk2Y0izReI+4kUKk
rv1am6C7Ea+q0Wslkm+bC7eLkGkgMbFXzgLfPddEEiELrrilVGWClktV9bJ98QNj
wDpKjpMh6t0rxN29V1BROs4yYgFNc/DPT9mv6isUKk6WFnZSyeRXBd1Ws9JjqL0I
Ahf0ZRKIJ0RE0Pis710O29Y9oiqVdr0Ne6xjtawIF/3vnTiDlTFu8qrB+82gSjyz
86oesJoKgjBBUjQdMTnIk9A4SpN9tQw81dgwNpSGRc4f
-----END CERTIFICATE-----
